; Function Attrs: nounwind uwtable
define dso_local i32 @onig_initialize(ptr noundef readonly captures(none) %0, i32 noundef %1) local_unnamed_addr #6 {
  %.b = load i1, ptr @onig_inited, align 4
  br i1 %.b, label %.loopexit, label %3

3:                                                ; preds = %2
  %4 = tail call i32 @onigenc_init() #22
  store i1 true, ptr @onig_inited, align 4
  %5 = icmp sgt i32 %1, 0
  br i1 %5, label %.lr.ph.preheader, label %.loopexit

.lr.ph.preheader:                                 ; preds = %3
  %wide.trip.count = zext nneg i32 %1 to i64
  br label %.lr.ph

6:                                                ; preds = %.lr.ph
  %indvars.iv.next = add nuw nsw i64 %indvars.iv, 1
  %exitcond.not = icmp eq i64 %indvars.iv.next, %wide.trip.count
  br i1 %exitcond.not, label %.loopexit, label %.lr.ph, !llvm.loop !170

.lr.ph:                                           ; preds = %.lr.ph.preheader, %6
  %indvars.iv = phi i64 [ 0, %.lr.ph.preheader ], [ %indvars.iv.next, %6 ]
  %7 = getelementptr inbounds nuw ptr, ptr %0, i64 %indvars.iv
  %8 = load ptr, ptr %7, align 8, !tbaa !171
  %9 = tail call i32 @onig_initialize_encoding(ptr noundef %8) #22
  %.not = icmp eq i32 %9, 0
  br i1 %.not, label %6, label %.loopexit

.loopexit:                                        ; preds = %.lr.ph, %6, %3, %2
  %.0 = phi i32 [ 0, %2 ], [ 0, %3 ], [ %9, %.lr.ph ], [ 0, %6 ]
  ret i32 %.0
}